target datalayout = "e-m:e-p270:32:32-p271:32:32-p272:64:64-i64:64-i128:128-f80:128-n8:16:32:64-S128"
target triple = "x86_64-unknown-linux-gnu"

%"struct.rocksdb::(anonymous namespace)::Node" = type <{ %"struct.std::atomic.29", [1 x i8], [7 x i8] }>
%"struct.std::atomic.29" = type { %"struct.std::__atomic_base.30" }
%"struct.std::__atomic_base.30" = type { ptr }
%"class.rocksdb::(anonymous namespace)::HashLinkListRep::LinkListIterator" = type { %"class.rocksdb::MemTableRep::Iterator", ptr, ptr, ptr }
%"class.rocksdb::MemTableRep::Iterator" = type { ptr }
%"class.rocksdb::SkipList<const char *, const rocksdb::MemTableRep::KeyComparator &>::Iterator" = type { ptr, ptr }
%"struct.rocksdb::SkipList<const char *, const rocksdb::MemTableRep::KeyComparator &>::Node" = type { ptr, [1 x %"struct.std::atomic.35"] }
%"struct.std::atomic.35" = type { %"struct.std::__atomic_base.36" }
%"struct.std::__atomic_base.36" = type { ptr }
%"class.rocksdb::(anonymous namespace)::HashLinkListRep::DynamicIterator" = type { %"class.rocksdb::(anonymous namespace)::HashLinkListRep::LinkListIterator", ptr, %"class.std::unique_ptr.66" }
%"class.std::unique_ptr.66" = type { %"struct.std::__uniq_ptr_data.67" }
%"struct.std::__uniq_ptr_data.67" = type { %"class.std::__uniq_ptr_impl.68" }
%"class.std::__uniq_ptr_impl.68" = type { %"class.std::tuple.69" }
%"class.std::tuple.69" = type { %"struct.std::_Tuple_impl.70" }
%"struct.std::_Tuple_impl.70" = type { %"struct.std::_Head_base.73" }
%"struct.std::_Head_base.73" = type { ptr }

; Function Attrs: mustprogress nounwind uwtable
define linkonce_odr noundef nonnull align 8 dereferenceable(8) ptr @_ZNSt10_Head_baseILm0EPN7rocksdb8SkipListIPKcRKNS0_11MemTableRep13KeyComparatorEE8IteratorELb0EE7_M_headERKSB_(ptr noundef nonnull align 8 dereferenceable(8) %__b) #1 comdat align 2 {
entry:
  %__b.addr = alloca ptr, align 8
  store ptr %__b, ptr %__b.addr, align 8
  %0 = load ptr, ptr %__b.addr, align 8
  %_M_head_impl = getelementptr inbounds %"struct.std::_Head_base.73", ptr %0, i32 0, i32 0
  ret ptr %_M_head_impl
}

; Function Attrs: mustprogress nounwind uwtable
define linkonce_odr noundef nonnull align 8 dereferenceable(8) ptr @_ZNSt11_Tuple_implILm0EJPN7rocksdb8SkipListIPKcRKNS0_11MemTableRep13KeyComparatorEE8IteratorESt14default_deleteIS9_EEE7_M_headERKSD_(ptr noundef nonnull align 8 dereferenceable(8) %__t) #1 comdat align 2 {
entry:
  %__t.addr = alloca ptr, align 8
  store ptr %__t, ptr %__t.addr, align 8
  %0 = load ptr, ptr %__t.addr, align 8
  %call = call noundef nonnull align 8 dereferenceable(8) ptr @_ZNSt10_Head_baseILm0EPN7rocksdb8SkipListIPKcRKNS0_11MemTableRep13KeyComparatorEE8IteratorELb0EE7_M_headERKSB_(ptr noundef nonnull align 8 dereferenceable(8) %0) #3
  ret ptr %call
}

; Function Attrs: mustprogress nounwind uwtable
define linkonce_odr noundef nonnull align 8 dereferenceable(8) ptr @_ZSt12__get_helperILm0EPN7rocksdb8SkipListIPKcRKNS0_11MemTableRep13KeyComparatorEE8IteratorEJSt14default_deleteIS9_EEERKT0_RKSt11_Tuple_implIXT_EJSD_DpT1_EE(ptr noundef nonnull align 8 dereferenceable(8) %__t) #1 comdat {
entry:
  %__t.addr = alloca ptr, align 8
  store ptr %__t, ptr %__t.addr, align 8
  %0 = load ptr, ptr %__t.addr, align 8
  %call = call noundef nonnull align 8 dereferenceable(8) ptr @_ZNSt11_Tuple_implILm0EJPN7rocksdb8SkipListIPKcRKNS0_11MemTableRep13KeyComparatorEE8IteratorESt14default_deleteIS9_EEE7_M_headERKSD_(ptr noundef nonnull align 8 dereferenceable(8) %0) #3
  ret ptr %call
}

; Function Attrs: mustprogress nounwind uwtable
define linkonce_odr noundef i32 @_ZStanSt12memory_orderSt23__memory_order_modifier(i32 noundef %__m, i32 noundef %__mod) #1 comdat {
entry:
  %__m.addr = alloca i32, align 4
  %__mod.addr = alloca i32, align 4
  store i32 %__m, ptr %__m.addr, align 4
  store i32 %__mod, ptr %__mod.addr, align 4
  %0 = load i32, ptr %__m.addr, align 4
  %1 = load i32, ptr %__mod.addr, align 4
  %and = and i32 %0, %1
  ret i32 %and
}

; Function Attrs: mustprogress nounwind uwtable
define linkonce_odr noundef nonnull align 8 dereferenceable(8) ptr @_ZSt3getILm0EJPN7rocksdb8SkipListIPKcRKNS0_11MemTableRep13KeyComparatorEE8IteratorESt14default_deleteIS9_EEERKNSt13tuple_elementIXT_ESt5tupleIJDpT0_EEE4typeERKSH_(ptr noundef nonnull align 8 dereferenceable(8) %__t) #1 comdat {
entry:
  %__t.addr = alloca ptr, align 8
  store ptr %__t, ptr %__t.addr, align 8
  %0 = load ptr, ptr %__t.addr, align 8
  %call = call noundef nonnull align 8 dereferenceable(8) ptr @_ZSt12__get_helperILm0EPN7rocksdb8SkipListIPKcRKNS0_11MemTableRep13KeyComparatorEE8IteratorEJSt14default_deleteIS9_EEERKT0_RKSt11_Tuple_implIXT_EJSD_DpT1_EE(ptr noundef nonnull align 8 dereferenceable(8) %0) #3
  ret ptr %call
}

; Function Attrs: mustprogress nounwind uwtable
define internal noundef ptr @_ZNKSt6atomicIPN7rocksdb12_GLOBAL__N_14NodeEE4loadESt12memory_order(ptr noundef nonnull align 8 dereferenceable(8) %this, i32 noundef %__m) #1 align 2 {
entry:
  %this.addr.i = alloca ptr, align 8
  %__m.addr.i = alloca i32, align 4
  %__b.i = alloca i32, align 4
  %atomic-temp.i = alloca ptr, align 8
  %this.addr = alloca ptr, align 8
  %__m.addr = alloca i32, align 4
  store ptr %this, ptr %this.addr, align 8
  store i32 %__m, ptr %__m.addr, align 4
  %this1 = load ptr, ptr %this.addr, align 8
  %_M_b = getelementptr inbounds %"struct.std::atomic.29", ptr %this1, i32 0, i32 0
  %0 = load i32, ptr %__m.addr, align 4
  store ptr %_M_b, ptr %this.addr.i, align 8
  store i32 %0, ptr %__m.addr.i, align 4
  %this1.i = load ptr, ptr %this.addr.i, align 8
  %1 = load i32, ptr %__m.addr.i, align 4
  %call.i = call noundef i32 @_ZStanSt12memory_orderSt23__memory_order_modifier(i32 noundef %1, i32 noundef 65535)
  store i32 %call.i, ptr %__b.i, align 4
  %2 = load i32, ptr %__m.addr.i, align 4
  switch i32 %2, label %monotonic.i [
    i32 1, label %acquire.i
    i32 2, label %acquire.i
    i32 5, label %seqcst.i
  ]

monotonic.i:                                      ; preds = %entry
  %3 = load atomic i64, ptr %this1.i monotonic, align 8
  store i64 %3, ptr %atomic-temp.i, align 8
  br label %_ZNKSt13__atomic_baseIPN7rocksdb12_GLOBAL__N_14NodeEE4loadESt12memory_order.exit

acquire.i:                                        ; preds = %entry, %entry
  %4 = load atomic i64, ptr %this1.i acquire, align 8
  store i64 %4, ptr %atomic-temp.i, align 8
  br label %_ZNKSt13__atomic_baseIPN7rocksdb12_GLOBAL__N_14NodeEE4loadESt12memory_order.exit

seqcst.i:                                         ; preds = %entry
  %5 = load atomic i64, ptr %this1.i seq_cst, align 8
  store i64 %5, ptr %atomic-temp.i, align 8
  br label %_ZNKSt13__atomic_baseIPN7rocksdb12_GLOBAL__N_14NodeEE4loadESt12memory_order.exit

_ZNKSt13__atomic_baseIPN7rocksdb12_GLOBAL__N_14NodeEE4loadESt12memory_order.exit: ; preds = %seqcst.i, %acquire.i, %monotonic.i
  %6 = load ptr, ptr %atomic-temp.i, align 8
  ret ptr %6
}

; Function Attrs: mustprogress nounwind uwtable
define linkonce_odr noundef ptr @_ZNKSt6atomicIPN7rocksdb8SkipListIPKcRKNS0_11MemTableRep13KeyComparatorEE4NodeEE4loadESt12memory_order(ptr noundef nonnull align 8 dereferenceable(8) %this, i32 noundef %__m) #1 comdat align 2 {
entry:
  %this.addr.i = alloca ptr, align 8
  %__m.addr.i = alloca i32, align 4
  %__b.i = alloca i32, align 4
  %atomic-temp.i = alloca ptr, align 8
  %this.addr = alloca ptr, align 8
  %__m.addr = alloca i32, align 4
  store ptr %this, ptr %this.addr, align 8
  store i32 %__m, ptr %__m.addr, align 4
  %this1 = load ptr, ptr %this.addr, align 8
  %_M_b = getelementptr inbounds %"struct.std::atomic.35", ptr %this1, i32 0, i32 0
  %0 = load i32, ptr %__m.addr, align 4
  store ptr %_M_b, ptr %this.addr.i, align 8
  store i32 %0, ptr %__m.addr.i, align 4
  %this1.i = load ptr, ptr %this.addr.i, align 8
  %1 = load i32, ptr %__m.addr.i, align 4
  %call.i = call noundef i32 @_ZStanSt12memory_orderSt23__memory_order_modifier(i32 noundef %1, i32 noundef 65535)
  store i32 %call.i, ptr %__b.i, align 4
  %2 = load i32, ptr %__m.addr.i, align 4
  switch i32 %2, label %monotonic.i [
    i32 1, label %acquire.i
    i32 2, label %acquire.i
    i32 5, label %seqcst.i
  ]

monotonic.i:                                      ; preds = %entry
  %3 = load atomic i64, ptr %this1.i monotonic, align 8
  store i64 %3, ptr %atomic-temp.i, align 8
  br label %_ZNKSt13__atomic_baseIPN7rocksdb8SkipListIPKcRKNS0_11MemTableRep13KeyComparatorEE4NodeEE4loadESt12memory_order.exit

acquire.i:                                        ; preds = %entry, %entry
  %4 = load atomic i64, ptr %this1.i acquire, align 8
  store i64 %4, ptr %atomic-temp.i, align 8
  br label %_ZNKSt13__atomic_baseIPN7rocksdb8SkipListIPKcRKNS0_11MemTableRep13KeyComparatorEE4NodeEE4loadESt12memory_order.exit

seqcst.i:                                         ; preds = %entry
  %5 = load atomic i64, ptr %this1.i seq_cst, align 8
  store i64 %5, ptr %atomic-temp.i, align 8
  br label %_ZNKSt13__atomic_baseIPN7rocksdb8SkipListIPKcRKNS0_11MemTableRep13KeyComparatorEE4NodeEE4loadESt12memory_order.exit

_ZNKSt13__atomic_baseIPN7rocksdb8SkipListIPKcRKNS0_11MemTableRep13KeyComparatorEE4NodeEE4loadESt12memory_order.exit: ; preds = %seqcst.i, %acquire.i, %monotonic.i
  %6 = load ptr, ptr %atomic-temp.i, align 8
  ret ptr %6
}

; Function Attrs: mustprogress nounwind uwtable
define linkonce_odr noundef ptr @_ZNKSt15__uniq_ptr_implIN7rocksdb8SkipListIPKcRKNS0_11MemTableRep13KeyComparatorEE8IteratorESt14default_deleteIS9_EE6_M_ptrEv(ptr noundef nonnull align 8 dereferenceable(8) %this) #1 comdat align 2 {
entry:
  %this.addr = alloca ptr, align 8
  store ptr %this, ptr %this.addr, align 8
  %this1 = load ptr, ptr %this.addr, align 8
  %_M_t = getelementptr inbounds %"class.std::__uniq_ptr_impl.68", ptr %this1, i32 0, i32 0
  %call = call noundef nonnull align 8 dereferenceable(8) ptr @_ZSt3getILm0EJPN7rocksdb8SkipListIPKcRKNS0_11MemTableRep13KeyComparatorEE8IteratorESt14default_deleteIS9_EEERKNSt13tuple_elementIXT_ESt5tupleIJDpT0_EEE4typeERKSH_(ptr noundef nonnull align 8 dereferenceable(8) %_M_t) #3
  %0 = load ptr, ptr %call, align 8
  ret ptr %0
}

; Function Attrs: mustprogress nounwind uwtable
define internal noundef ptr @_ZN7rocksdb12_GLOBAL__N_14Node4NextEv(ptr noundef nonnull align 8 dereferenceable(9) %this) #1 align 2 {
entry:
  %this.addr = alloca ptr, align 8
  store ptr %this, ptr %this.addr, align 8
  %this1 = load ptr, ptr %this.addr, align 8
  %next_ = getelementptr inbounds %"struct.rocksdb::(anonymous namespace)::Node", ptr %this1, i32 0, i32 0
  %call = call noundef ptr @_ZNKSt6atomicIPN7rocksdb12_GLOBAL__N_14NodeEE4loadESt12memory_order(ptr noundef nonnull align 8 dereferenceable(8) %next_, i32 noundef 2) #3
  ret ptr %call
}

; Function Attrs: mustprogress nounwind uwtable
define linkonce_odr noundef ptr @_ZN7rocksdb8SkipListIPKcRKNS_11MemTableRep13KeyComparatorEE4Node4NextEi(ptr noundef nonnull align 8 dereferenceable(16) %this, i32 noundef %n) #1 comdat align 2 {
entry:
  %this.addr = alloca ptr, align 8
  %n.addr = alloca i32, align 4
  store ptr %this, ptr %this.addr, align 8
  store i32 %n, ptr %n.addr, align 4
  %this1 = load ptr, ptr %this.addr, align 8
  %next_ = getelementptr inbounds %"struct.rocksdb::SkipList<const char *, const rocksdb::MemTableRep::KeyComparator &>::Node", ptr %this1, i32 0, i32 1
  %0 = load i32, ptr %n.addr, align 4
  %idxprom = sext i32 %0 to i64
  %arrayidx = getelementptr inbounds [1 x %"struct.std::atomic.35"], ptr %next_, i64 0, i64 %idxprom
  %call = call noundef ptr @_ZNKSt6atomicIPN7rocksdb8SkipListIPKcRKNS0_11MemTableRep13KeyComparatorEE4NodeEE4loadESt12memory_order(ptr noundef nonnull align 8 dereferenceable(8) %arrayidx, i32 noundef 2) #3
  ret ptr %call
}

; Function Attrs: mustprogress nounwind uwtable
define linkonce_odr noundef ptr @_ZNKSt10unique_ptrIN7rocksdb8SkipListIPKcRKNS0_11MemTableRep13KeyComparatorEE8IteratorESt14default_deleteIS9_EE3getEv(ptr noundef nonnull align 8 dereferenceable(8) %this) #1 comdat align 2 {
entry:
  %this.addr = alloca ptr, align 8
  store ptr %this, ptr %this.addr, align 8
  %this1 = load ptr, ptr %this.addr, align 8
  %_M_t = getelementptr inbounds %"class.std::unique_ptr.66", ptr %this1, i32 0, i32 0
  %call = call noundef ptr @_ZNKSt15__uniq_ptr_implIN7rocksdb8SkipListIPKcRKNS0_11MemTableRep13KeyComparatorEE8IteratorESt14default_deleteIS9_EE6_M_ptrEv(ptr noundef nonnull align 8 dereferenceable(8) %_M_t) #3
  ret ptr %call
}

; Function Attrs: mustprogress uwtable
define internal void @_ZN7rocksdb12_GLOBAL__N_115HashLinkListRep16LinkListIterator4NextEv(ptr noundef nonnull align 8 dereferenceable(32) %this) unnamed_addr #0 align 2 {
entry:
  %this.addr = alloca ptr, align 8
  store ptr %this, ptr %this.addr, align 8
  %this1 = load ptr, ptr %this.addr, align 8
  %node_ = getelementptr inbounds %"class.rocksdb::(anonymous namespace)::HashLinkListRep::LinkListIterator", ptr %this1, i32 0, i32 3
  %0 = load ptr, ptr %node_, align 8
  %call = call noundef ptr @_ZN7rocksdb12_GLOBAL__N_14Node4NextEv(ptr noundef nonnull align 8 dereferenceable(9) %0)
  %node_2 = getelementptr inbounds %"class.rocksdb::(anonymous namespace)::HashLinkListRep::LinkListIterator", ptr %this1, i32 0, i32 3
  store ptr %call, ptr %node_2, align 8
  ret void
}

; Function Attrs: mustprogress nounwind uwtable
define linkonce_odr void @_ZN7rocksdb8SkipListIPKcRKNS_11MemTableRep13KeyComparatorEE8Iterator4NextEv(ptr noundef nonnull align 8 dereferenceable(16) %this) #1 comdat align 2 {
entry:
  %this.addr = alloca ptr, align 8
  store ptr %this, ptr %this.addr, align 8
  %this1 = load ptr, ptr %this.addr, align 8
  %node_ = getelementptr inbounds %"class.rocksdb::SkipList<const char *, const rocksdb::MemTableRep::KeyComparator &>::Iterator", ptr %this1, i32 0, i32 1
  %0 = load ptr, ptr %node_, align 8
  %call = call noundef ptr @_ZN7rocksdb8SkipListIPKcRKNS_11MemTableRep13KeyComparatorEE4Node4NextEi(ptr noundef nonnull align 8 dereferenceable(16) %0, i32 noundef 0)
  %node_2 = getelementptr inbounds %"class.rocksdb::SkipList<const char *, const rocksdb::MemTableRep::KeyComparator &>::Iterator", ptr %this1, i32 0, i32 1
  store ptr %call, ptr %node_2, align 8
  ret void
}

; Function Attrs: mustprogress nounwind uwtable
define linkonce_odr noundef ptr @_ZNKSt10unique_ptrIN7rocksdb8SkipListIPKcRKNS0_11MemTableRep13KeyComparatorEE8IteratorESt14default_deleteIS9_EEptEv(ptr noundef nonnull align 8 dereferenceable(8) %this) #1 comdat align 2 {
entry:
  %this.addr = alloca ptr, align 8
  store ptr %this, ptr %this.addr, align 8
  %this1 = load ptr, ptr %this.addr, align 8
  %call = call noundef ptr @_ZNKSt10unique_ptrIN7rocksdb8SkipListIPKcRKNS0_11MemTableRep13KeyComparatorEE8IteratorESt14default_deleteIS9_EE3getEv(ptr noundef nonnull align 8 dereferenceable(8) %this1) #3
  ret ptr %call
}

; Function Attrs: mustprogress nounwind uwtable
define linkonce_odr noundef zeroext i1 @_ZNKSt10unique_ptrIN7rocksdb8SkipListIPKcRKNS0_11MemTableRep13KeyComparatorEE8IteratorESt14default_deleteIS9_EEcvbEv(ptr noundef nonnull align 8 dereferenceable(8) %this) #1 comdat align 2 {
entry:
  %this.addr = alloca ptr, align 8
  store ptr %this, ptr %this.addr, align 8
  %this1 = load ptr, ptr %this.addr, align 8
  %call = call noundef ptr @_ZNKSt10unique_ptrIN7rocksdb8SkipListIPKcRKNS0_11MemTableRep13KeyComparatorEE8IteratorESt14default_deleteIS9_EE3getEv(ptr noundef nonnull align 8 dereferenceable(8) %this1) #3
  %cmp = icmp eq ptr %call, null
  %cond = select i1 %cmp, i1 false, i1 true
  ret i1 %cond
}

; Function Attrs: mustprogress uwtable
define internal void @_ZN7rocksdb12_GLOBAL__N_115HashLinkListRep15DynamicIterator4NextEv(ptr noundef nonnull align 8 dereferenceable(48) %this) unnamed_addr #0 align 2 {
entry:
  %this.addr = alloca ptr, align 8
  store ptr %this, ptr %this.addr, align 8
  %this1 = load ptr, ptr %this.addr, align 8
  %skip_list_iter_ = getelementptr inbounds %"class.rocksdb::(anonymous namespace)::HashLinkListRep::DynamicIterator", ptr %this1, i32 0, i32 2
  %call = call noundef zeroext i1 @_ZNKSt10unique_ptrIN7rocksdb8SkipListIPKcRKNS0_11MemTableRep13KeyComparatorEE8IteratorESt14default_deleteIS9_EEcvbEv(ptr noundef nonnull align 8 dereferenceable(8) %skip_list_iter_) #3
  br i1 %call, label %if.then, label %if.else

if.then:                                          ; preds = %entry
  %skip_list_iter_2 = getelementptr inbounds %"class.rocksdb::(anonymous namespace)::HashLinkListRep::DynamicIterator", ptr %this1, i32 0, i32 2
  %call3 = call noundef ptr @_ZNKSt10unique_ptrIN7rocksdb8SkipListIPKcRKNS0_11MemTableRep13KeyComparatorEE8IteratorESt14default_deleteIS9_EEptEv(ptr noundef nonnull align 8 dereferenceable(8) %skip_list_iter_2) #3
  call void @_ZN7rocksdb8SkipListIPKcRKNS_11MemTableRep13KeyComparatorEE8Iterator4NextEv(ptr noundef nonnull align 8 dereferenceable(16) %call3)
  br label %if.end

if.else:                                          ; preds = %entry
  call void @_ZN7rocksdb12_GLOBAL__N_115HashLinkListRep16LinkListIterator4NextEv(ptr noundef nonnull align 8 dereferenceable(32) %this1)
  br label %if.end

if.end:                                           ; preds = %if.else, %if.then
  ret void
}