; Function Attrs: mustprogress nofree norecurse nounwind willreturn memory(readwrite, inaccessiblemem: none) uwtable
define internal void @_ZN7rocksdb12_GLOBAL__N_115HashLinkListRep15DynamicIterator4NextEv(ptr nocapture noundef nonnull align 8 dereferenceable(48) %this) unnamed_addr #15 align 2 {
entry:
  %skip_list_iter_ = getelementptr inbounds i8, ptr %this, i64 40
  %0 = load ptr, ptr %skip_list_iter_, align 8
  %cmp.i.not = icmp eq ptr %0, null
  br i1 %cmp.i.not, label %if.else, label %if.then

if.then:                                          ; preds = %entry
  %node_.i = getelementptr inbounds i8, ptr %0, i64 8
  %1 = load ptr, ptr %node_.i, align 8
  %next_.i.i = getelementptr inbounds i8, ptr %1, i64 8
  br label %if.end

if.else:                                          ; preds = %entry
  %node_.i1 = getelementptr inbounds i8, ptr %this, i64 24
  %2 = load ptr, ptr %node_.i1, align 8
  br label %if.end

if.end:                                           ; preds = %if.else, %if.then
  %.sink = phi ptr [ %2, %if.else ], [ %next_.i.i, %if.then ]
  %node_.i1.sink = phi ptr [ %node_.i1, %if.else ], [ %node_.i, %if.then ]
  %3 = load atomic i64, ptr %.sink acquire, align 8
  %4 = inttoptr i64 %3 to ptr
  store ptr %4, ptr %node_.i1.sink, align 8
  ret void
}